; Function Attrs: mustprogress nofree norecurse nosync nounwind willreturn memory(read, inaccessiblemem: none) uwtable
define noundef i64 @_ZNK6google8protobuf8internal11SerialArena9SpaceUsedEv(ptr noundef nonnull readonly align 8 captures(none) dereferenceable(72) %0) local_unnamed_addr #16 align 2 personality ptr @__gxx_personality_v0 {
  %2 = getelementptr inbounds nuw i8, ptr %0, i64 40
  %3 = load ptr, ptr %2, align 8, !tbaa !49
  %4 = getelementptr inbounds nuw i8, ptr %0, i64 16
  %5 = load ptr, ptr %4, align 8, !tbaa !48
  %6 = getelementptr inbounds nuw i8, ptr %5, i64 24
  %7 = ptrtoint ptr %3 to i64
  %8 = ptrtoint ptr %6 to i64
  %9 = sub i64 %7, %8
  %.0.in.in7 = load i64, ptr %5, align 8, !tbaa !23
  %.0.in8 = and i64 %.0.in.in7, -4
  %.not9 = icmp eq i64 %.0.in8, 0
  br i1 %.not9, label %._crit_edge, label %.lr.ph

._crit_edge:                                      ; preds = %.lr.ph, %1
  %.06.lcssa = phi i64 [ %9, %1 ], [ %14, %.lr.ph ]
  %10 = add i64 %.06.lcssa, -72
  ret i64 %10

.lr.ph:                                           ; preds = %1, %.lr.ph
  %.0.in11 = phi i64 [ %.0.in, %.lr.ph ], [ %.0.in8, %1 ]
  %.0610 = phi i64 [ %14, %.lr.ph ], [ %9, %1 ]
  %.0 = inttoptr i64 %.0.in11 to ptr
  %11 = getelementptr inbounds nuw i8, ptr %.0, i64 8
  %12 = load i64, ptr %11, align 8, !tbaa !36
  %13 = add i64 %.0610, -24
  %14 = add i64 %13, %12
  %.0.in.in = load i64, ptr %.0, align 8, !tbaa !23
  %.0.in = and i64 %.0.in.in, -4
  %.not = icmp eq i64 %.0.in, 0
  br i1 %.not, label %._crit_edge, label %.lr.ph, !llvm.loop !74
}